target datalayout = "e-m:e-p270:32:32-p271:32:32-p272:64:64-i64:64-i128:128-f80:128-n8:16:32:64-S128"
target triple = "x86_64-pc-linux-gnu"

%struct.wtap = type { ptr, ptr, i8, i32, i32, ptr, ptr, ptr, i32, ptr, ptr, ptr, ptr, ptr, ptr, ptr, ptr, ptr, ptr, i32, i32, ptr, ptr, ptr, ptr }
%struct.visual_read_info = type { i32, i32, i64 }

; Function Attrs: null_pointer_is_valid sspstrong uwtable
define internal zeroext i1 @visual_read(ptr noundef %0, ptr noundef %1, ptr noundef %2, ptr noundef %3, ptr noundef %4) #0 {
  %6 = alloca i1, align 1
  %7 = alloca ptr, align 8
  %8 = alloca ptr, align 8
  %9 = alloca ptr, align 8
  %10 = alloca ptr, align 8
  %11 = alloca ptr, align 8
  %12 = alloca ptr, align 8
  %13 = alloca i32, align 4
  store ptr %0, ptr %7, align 8
  store ptr %1, ptr %8, align 8
  store ptr %2, ptr %9, align 8
  store ptr %3, ptr %10, align 8
  store ptr %4, ptr %11, align 8
  call void @llvm.lifetime.start.p0(i64 8, ptr %12) #10
  %14 = load ptr, ptr %7, align 8
  %15 = getelementptr inbounds nuw %struct.wtap, ptr %14, i32 0, i32 13
  %16 = load ptr, ptr %15, align 8
  store ptr %16, ptr %12, align 8
  %17 = load ptr, ptr %12, align 8
  %18 = getelementptr inbounds nuw %struct.visual_read_info, ptr %17, i32 0, i32 1
  %19 = load i32, ptr %18, align 4
  %20 = load ptr, ptr %12, align 8
  %21 = getelementptr inbounds nuw %struct.visual_read_info, ptr %20, i32 0, i32 0
  %22 = load i32, ptr %21, align 8
  %23 = icmp ugt i32 %19, %22
  br i1 %23, label %24, label %26

24:                                               ; preds = %5
  %25 = load ptr, ptr %9, align 8
  store i32 0, ptr %25, align 4
  store i1 false, ptr %6, align 1
  store i32 1, ptr %13, align 4
  br label %44

26:                                               ; preds = %5
  %27 = load ptr, ptr %12, align 8
  %28 = getelementptr inbounds nuw %struct.visual_read_info, ptr %27, i32 0, i32 1
  %29 = load i32, ptr %28, align 4
  %30 = add i32 %29, 1
  store i32 %30, ptr %28, align 4
  %31 = load ptr, ptr %7, align 8
  %32 = getelementptr inbounds nuw %struct.wtap, ptr %31, i32 0, i32 0
  %33 = load ptr, ptr %32, align 8
  %34 = call i64 @file_tell(ptr noundef %33)
  %35 = load ptr, ptr %11, align 8
  store i64 %34, ptr %35, align 8
  %36 = load ptr, ptr %7, align 8
  %37 = load ptr, ptr %7, align 8
  %38 = getelementptr inbounds nuw %struct.wtap, ptr %37, i32 0, i32 0
  %39 = load ptr, ptr %38, align 8
  %40 = load ptr, ptr %8, align 8
  %41 = load ptr, ptr %9, align 8
  %42 = load ptr, ptr %10, align 8
  %43 = call zeroext i1 @visual_read_packet(ptr noundef %36, ptr noundef %39, ptr noundef %40, ptr noundef %41, ptr noundef %42)
  store i1 %43, ptr %6, align 1
  store i32 1, ptr %13, align 4
  br label %44

44:                                               ; preds = %26, %24
  call void @llvm.lifetime.end.p0(i64 8, ptr %12) #10
  %45 = load i1, ptr %6, align 1
  ret i1 %45
}