; Function Attrs: null_pointer_is_valid sspstrong uwtable
define internal noundef zeroext i1 @visual_read(ptr noundef readonly captures(none) %0, ptr noundef %1, ptr noundef %2, ptr noundef %3, ptr noundef writeonly captures(none) %4) #0 {
  %6 = getelementptr inbounds nuw i8, ptr %0, i64 96
  %7 = load ptr, ptr %6, align 8
  %8 = getelementptr inbounds nuw i8, ptr %7, i64 4
  %9 = load i32, ptr %8, align 4
  %10 = load i32, ptr %7, align 8
  %11 = icmp ugt i32 %9, %10
  br i1 %11, label %12, label %13

12:                                               ; preds = %5
  store i32 0, ptr %2, align 4
  br label %19

13:                                               ; preds = %5
  %14 = add i32 %9, 1
  store i32 %14, ptr %8, align 4
  %15 = load ptr, ptr %0, align 8
  %16 = tail call i64 @file_tell(ptr noundef %15)
  store i64 %16, ptr %4, align 8
  %17 = load ptr, ptr %0, align 8
  %18 = tail call fastcc zeroext i1 @visual_read_packet(ptr noundef %0, ptr noundef %17, ptr noundef %1, ptr noundef %2, ptr noundef %3)
  br label %19

19:                                               ; preds = %13, %12
  %.0 = phi i1 [ false, %12 ], [ %18, %13 ]
  ret i1 %.0
}